target datalayout = "e-m:e-p270:32:32-p271:32:32-p272:64:64-i64:64-i128:128-f80:128-n8:16:32:64-S128"
target triple = "x86_64-pc-linux-gnu"

%struct.Regis = type { ptr, i32 }
%struct.RegisNode = type { i32, ptr, [0 x i8] }

@.str.1 = private unnamed_addr constant [8 x i8] c"regis.c\00", align 1
@.str.4 = private unnamed_addr constant [33 x i8] c"unrecognized regis node type: %d\00", align 1
@__func__.RS_execute = private unnamed_addr constant [11 x i8] c"RS_execute\00", align 1

; Function Attrs: nounwind uwtable
define internal zeroext i1 @mb_strchr(ptr noundef %0, ptr noundef %1) #0 {
  %3 = alloca ptr, align 8
  %4 = alloca ptr, align 8
  %5 = alloca i32, align 4
  %6 = alloca i32, align 4
  %7 = alloca i32, align 4
  %8 = alloca ptr, align 8
  %9 = alloca i8, align 1
  store ptr %0, ptr %3, align 8
  store ptr %1, ptr %4, align 8
  call void @llvm.lifetime.start.p0(i64 4, ptr %5) #7
  call void @llvm.lifetime.start.p0(i64 4, ptr %6) #7
  call void @llvm.lifetime.start.p0(i64 4, ptr %7) #7
  call void @llvm.lifetime.start.p0(i64 8, ptr %8) #7
  %10 = load ptr, ptr %3, align 8
  store ptr %10, ptr %8, align 8
  call void @llvm.lifetime.start.p0(i64 1, ptr %9) #7
  store i8 0, ptr %9, align 1
  %11 = load ptr, ptr %4, align 8
  %12 = call i32 @pg_mblen(ptr noundef %11)
  store i32 %12, ptr %5, align 4
  br label %13

13:                                               ; preds = %53, %2
  %14 = load ptr, ptr %8, align 8
  %15 = load i8, ptr %14, align 1
  %16 = sext i8 %15 to i32
  %17 = icmp ne i32 %16, 0
  br i1 %17, label %18, label %22

18:                                               ; preds = %13
  %19 = load i8, ptr %9, align 1, !range !6, !noundef !7
  %20 = trunc i8 %19 to i1
  %21 = xor i1 %20, true
  br label %22

22:                                               ; preds = %18, %13
  %23 = phi i1 [ false, %13 ], [ %21, %18 ]
  br i1 %23, label %24, label %58

24:                                               ; preds = %22
  %25 = load ptr, ptr %8, align 8
  %26 = call i32 @pg_mblen(ptr noundef %25)
  store i32 %26, ptr %6, align 4
  %27 = load i32, ptr %6, align 4
  %28 = load i32, ptr %5, align 4
  %29 = icmp eq i32 %27, %28
  br i1 %29, label %30, label %53

30:                                               ; preds = %24
  %31 = load i32, ptr %6, align 4
  store i32 %31, ptr %7, align 4
  store i8 1, ptr %9, align 1
  br label %32

32:                                               ; preds = %51, %30
  %33 = load i32, ptr %7, align 4
  %34 = add i32 %33, -1
  store i32 %34, ptr %7, align 4
  %35 = icmp ne i32 %33, 0
  br i1 %35, label %36, label %52

36:                                               ; preds = %32
  %37 = load ptr, ptr %8, align 8
  %38 = load i32, ptr %7, align 4
  %39 = sext i32 %38 to i64
  %40 = getelementptr inbounds i8, ptr %37, i64 %39
  %41 = load i8, ptr %40, align 1
  %42 = sext i8 %41 to i32
  %43 = load ptr, ptr %4, align 8
  %44 = load i32, ptr %7, align 4
  %45 = sext i32 %44 to i64
  %46 = getelementptr inbounds i8, ptr %43, i64 %45
  %47 = load i8, ptr %46, align 1
  %48 = sext i8 %47 to i32
  %49 = icmp ne i32 %42, %48
  br i1 %49, label %50, label %51

50:                                               ; preds = %36
  store i8 0, ptr %9, align 1
  br label %52

51:                                               ; preds = %36
  br label %32, !llvm.loop !14

52:                                               ; preds = %50, %32
  br label %53

53:                                               ; preds = %52, %24
  %54 = load i32, ptr %6, align 4
  %55 = load ptr, ptr %8, align 8
  %56 = sext i32 %54 to i64
  %57 = getelementptr inbounds i8, ptr %55, i64 %56
  store ptr %57, ptr %8, align 8
  br label %13, !llvm.loop !15

58:                                               ; preds = %22
  %59 = load i8, ptr %9, align 1, !range !6, !noundef !7
  %60 = trunc i8 %59 to i1
  call void @llvm.lifetime.end.p0(i64 1, ptr %9) #7
  call void @llvm.lifetime.end.p0(i64 8, ptr %8) #7
  call void @llvm.lifetime.end.p0(i64 4, ptr %7) #7
  call void @llvm.lifetime.end.p0(i64 4, ptr %6) #7
  call void @llvm.lifetime.end.p0(i64 4, ptr %5) #7
  ret i1 %60
}

; Function Attrs: nounwind uwtable
define dso_local zeroext i1 @RS_execute(ptr noundef %0, ptr noundef %1) #0 {
  %3 = alloca i1, align 1
  %4 = alloca ptr, align 8
  %5 = alloca ptr, align 8
  %6 = alloca ptr, align 8
  %7 = alloca ptr, align 8
  %8 = alloca i32, align 4
  %9 = alloca i32, align 4
  store ptr %0, ptr %4, align 8
  store ptr %1, ptr %5, align 8
  call void @llvm.lifetime.start.p0(i64 8, ptr %6) #7
  %10 = load ptr, ptr %4, align 8
  %11 = getelementptr inbounds nuw %struct.Regis, ptr %10, i32 0, i32 0
  %12 = load ptr, ptr %11, align 8
  store ptr %12, ptr %6, align 8
  call void @llvm.lifetime.start.p0(i64 8, ptr %7) #7
  %13 = load ptr, ptr %5, align 8
  store ptr %13, ptr %7, align 8
  call void @llvm.lifetime.start.p0(i64 4, ptr %8) #7
  store i32 0, ptr %8, align 4
  br label %14

14:                                               ; preds = %18, %2
  %15 = load ptr, ptr %7, align 8
  %16 = load i8, ptr %15, align 1
  %17 = icmp ne i8 %16, 0
  br i1 %17, label %18, label %26

18:                                               ; preds = %14
  %19 = load i32, ptr %8, align 4
  %20 = add i32 %19, 1
  store i32 %20, ptr %8, align 4
  %21 = load ptr, ptr %7, align 8
  %22 = call i32 @pg_mblen(ptr noundef %21)
  %23 = load ptr, ptr %7, align 8
  %24 = sext i32 %22 to i64
  %25 = getelementptr inbounds i8, ptr %23, i64 %24
  store ptr %25, ptr %7, align 8
  br label %14, !llvm.loop !11

26:                                               ; preds = %14
  %27 = load i32, ptr %8, align 4
  %28 = load ptr, ptr %4, align 8
  %29 = getelementptr inbounds nuw %struct.Regis, ptr %28, i32 0, i32 1
  %30 = load i32, ptr %29, align 8
  %31 = lshr i32 %30, 1
  %32 = and i32 %31, 65535
  %33 = icmp slt i32 %27, %32
  br i1 %33, label %34, label %35

34:                                               ; preds = %26
  store i1 false, ptr %3, align 1
  store i32 1, ptr %9, align 4
  br label %109

35:                                               ; preds = %26
  %36 = load ptr, ptr %5, align 8
  store ptr %36, ptr %7, align 8
  %37 = load ptr, ptr %4, align 8
  %38 = getelementptr inbounds nuw %struct.Regis, ptr %37, i32 0, i32 1
  %39 = load i32, ptr %38, align 8
  %40 = and i32 %39, 1
  %41 = icmp ne i32 %40, 0
  br i1 %41, label %42, label %61

42:                                               ; preds = %35
  %43 = load ptr, ptr %4, align 8
  %44 = getelementptr inbounds nuw %struct.Regis, ptr %43, i32 0, i32 1
  %45 = load i32, ptr %44, align 8
  %46 = lshr i32 %45, 1
  %47 = and i32 %46, 65535
  %48 = load i32, ptr %8, align 4
  %49 = sub i32 %48, %47
  store i32 %49, ptr %8, align 4
  br label %50

50:                                               ; preds = %54, %42
  %51 = load i32, ptr %8, align 4
  %52 = add i32 %51, -1
  store i32 %52, ptr %8, align 4
  %53 = icmp sgt i32 %51, 0
  br i1 %53, label %54, label %60

54:                                               ; preds = %50
  %55 = load ptr, ptr %7, align 8
  %56 = call i32 @pg_mblen(ptr noundef %55)
  %57 = load ptr, ptr %7, align 8
  %58 = sext i32 %56 to i64
  %59 = getelementptr inbounds i8, ptr %57, i64 %58
  store ptr %59, ptr %7, align 8
  br label %50, !llvm.loop !12

60:                                               ; preds = %50
  br label %61

61:                                               ; preds = %60, %35
  br label %62

62:                                               ; preds = %99, %61
  %63 = load ptr, ptr %6, align 8
  %64 = icmp ne ptr %63, null
  br i1 %64, label %65, label %108

65:                                               ; preds = %62
  %66 = load ptr, ptr %6, align 8
  %67 = load i32, ptr %66, align 8
  %68 = and i32 %67, 3
  switch i32 %68, label %85 [
    i32 1, label %69
    i32 2, label %77
  ]

69:                                               ; preds = %65
  %70 = load ptr, ptr %6, align 8
  %71 = getelementptr inbounds nuw %struct.RegisNode, ptr %70, i32 0, i32 2
  %72 = getelementptr inbounds [0 x i8], ptr %71, i64 0, i64 0
  %73 = load ptr, ptr %7, align 8
  %74 = call zeroext i1 @mb_strchr(ptr noundef %72, ptr noundef %73)
  br i1 %74, label %76, label %75

75:                                               ; preds = %69
  store i1 false, ptr %3, align 1
  store i32 1, ptr %9, align 4
  br label %109

76:                                               ; preds = %69
  br label %99

77:                                               ; preds = %65
  %78 = load ptr, ptr %6, align 8
  %79 = getelementptr inbounds nuw %struct.RegisNode, ptr %78, i32 0, i32 2
  %80 = getelementptr inbounds [0 x i8], ptr %79, i64 0, i64 0
  %81 = load ptr, ptr %7, align 8
  %82 = call zeroext i1 @mb_strchr(ptr noundef %80, ptr noundef %81)
  br i1 %82, label %83, label %84

83:                                               ; preds = %77
  store i1 false, ptr %3, align 1
  store i32 1, ptr %9, align 4
  br label %109

84:                                               ; preds = %77
  br label %99

85:                                               ; preds = %65
  br label %86

86:                                               ; preds = %85
  br i1 true, label %87, label %89

87:                                               ; preds = %86
  %88 = call zeroext i1 @errstart_cold(i32 noundef 21, ptr noundef null) #8
  br i1 %88, label %91, label %96

89:                                               ; preds = %86
  %90 = call zeroext i1 @errstart(i32 noundef 21, ptr noundef null)
  br i1 %90, label %91, label %96

91:                                               ; preds = %89, %87
  %92 = load ptr, ptr %6, align 8
  %93 = load i32, ptr %92, align 8
  %94 = and i32 %93, 3
  %95 = call i32 (ptr, ...) @errmsg_internal(ptr noundef @.str.4, i32 noundef %94)
  call void @errfinish(ptr noundef @.str.1, i32 noundef 250, ptr noundef @__func__.RS_execute)
  br label %96

96:                                               ; preds = %91, %89, %87
  unreachable

97:                                               ; No predecessors!
  br label %98

98:                                               ; preds = %97
  br label %99

99:                                               ; preds = %98, %84, %76
  %100 = load ptr, ptr %6, align 8
  %101 = getelementptr inbounds nuw %struct.RegisNode, ptr %100, i32 0, i32 1
  %102 = load ptr, ptr %101, align 8
  store ptr %102, ptr %6, align 8
  %103 = load ptr, ptr %7, align 8
  %104 = call i32 @pg_mblen(ptr noundef %103)
  %105 = load ptr, ptr %7, align 8
  %106 = sext i32 %104 to i64
  %107 = getelementptr inbounds i8, ptr %105, i64 %106
  store ptr %107, ptr %7, align 8
  br label %62, !llvm.loop !13

108:                                              ; preds = %62
  store i1 true, ptr %3, align 1
  store i32 1, ptr %9, align 4
  br label %109

109:                                              ; preds = %108, %83, %75, %34
  call void @llvm.lifetime.end.p0(i64 4, ptr %8) #7
  call void @llvm.lifetime.end.p0(i64 8, ptr %7) #7
  call void @llvm.lifetime.end.p0(i64 8, ptr %6) #7
  %110 = load i1, ptr %3, align 1
  ret i1 %110
}